target datalayout = "e-m:e-p270:32:32-p271:32:32-p272:64:64-i64:64-i128:128-f80:128-n8:16:32:64-S128"
target triple = "x86_64-pc-linux-gnu"

%struct.rb_data_type_struct = type { ptr, %struct.anon.12, ptr, ptr, i64 }
%struct.anon.12 = type { ptr, ptr, ptr, ptr, [1 x ptr] }
%struct.rb_thread_struct = type { %struct.ccan_list_node, i64, ptr, ptr, ptr, ptr, %struct.rb_thread_sched_item, i8, i32, i64, ptr, i64, i64, i8, i8, i32, ptr, i64, i64, i64, i64, %union.pthread_mutex_t, %struct.rb_unblock_callback, i64, ptr, %struct.ccan_list_head, ptr, %union.anon, i32, i64, ptr, i64, i32, i64, ptr, %struct.rb_ext_config }
%struct.ccan_list_node = type { ptr, ptr }
%struct.rb_thread_sched_item = type { %struct.anon, %struct.rb_thread_sched_waiting, i8, i8, ptr, ptr }
%struct.anon = type { %struct.ccan_list_node, %struct.ccan_list_node, %struct.ccan_list_node, %struct.ccan_list_node, %struct.ccan_list_node }
%struct.rb_thread_sched_waiting = type { i32, %struct.anon.0, %struct.ccan_list_node }
%struct.anon.0 = type { i64, i32, i32 }
%union.pthread_mutex_t = type { %struct.__pthread_mutex_s }
%struct.__pthread_mutex_s = type { i32, i32, i32, i32, i32, i16, i16, %struct.__pthread_internal_list }
%struct.__pthread_internal_list = type { ptr, ptr }
%struct.rb_unblock_callback = type { ptr, ptr }
%struct.ccan_list_head = type { %struct.ccan_list_node }
%union.anon = type { %struct.anon.1 }
%struct.anon.1 = type { i64, i64, i32 }
%struct.rb_ext_config = type { i8 }
%struct.rb_process_status = type { i32, i32, i32 }
%struct.RTypedData = type { %struct.RBasic, ptr, i64, ptr }
%struct.RBasic = type { i64, i64 }
%struct.__sigset_t = type { [16 x i64] }
%struct.rb_execution_context_struct = type { ptr, i64, ptr, ptr, i32, i32, ptr, ptr, ptr, i64, i64, i64, ptr, i64, ptr, i64, i64, i8, i8, i64, %struct.anon.11 }
%struct.anon.11 = type { ptr, ptr, i64, [1 x %struct.__jmp_buf_tag] }
%struct.__jmp_buf_tag = type { [8 x i64], i32, %struct.__sigset_t }

@rb_cProcessStatus = internal global i64 0, align 8
@rb_process_status_type = internal constant %struct.rb_data_type_struct { ptr @.str.172, %struct.anon.12 { ptr null, ptr inttoptr (i64 -1 to ptr), ptr null, ptr null, [1 x ptr] zeroinitializer }, ptr null, ptr null, i64 35 }, align 8
@ruby_current_ec = external thread_local global ptr, align 8

; Function Attrs: inlinehint nounwind sspstrong uwtable
define internal zeroext i1 @RTYPEDDATA_EMBEDDED_P(i64 noundef %0) #1 {
  %2 = alloca i64, align 8
  store i64 %0, ptr %2, align 8, !tbaa !35
  %3 = load i64, ptr %2, align 8, !tbaa !35
  %4 = inttoptr i64 %3 to ptr
  %5 = getelementptr inbounds nuw %struct.RTypedData, ptr %4, i32 0, i32 2
  %6 = load i64, ptr %5, align 8, !tbaa !211
  %7 = and i64 %6, 2
  %8 = icmp ne i64 %7, 0
  ret i1 %8
}

; Function Attrs: inlinehint nounwind sspstrong uwtable
define internal ptr @rb_ec_thread_ptr(ptr noundef %0) #1 {
  %2 = alloca ptr, align 8
  store ptr %0, ptr %2, align 8, !tbaa !33
  %3 = load ptr, ptr %2, align 8, !tbaa !33
  %4 = getelementptr inbounds nuw %struct.rb_execution_context_struct, ptr %3, i32 0, i32 7
  %5 = load ptr, ptr %4, align 8, !tbaa !210
  ret ptr %5
}

; Function Attrs: inlinehint nounwind sspstrong uwtable
define internal ptr @rb_current_execution_context(i1 noundef zeroext %0) #1 {
  %2 = alloca i8, align 1
  %3 = alloca ptr, align 8
  %4 = zext i1 %0 to i8
  store i8 %4, ptr %2, align 1, !tbaa !57
  call void @llvm.lifetime.start.p0(i64 8, ptr %3) #27
  %5 = call align 8 ptr @llvm.threadlocal.address.p0(ptr align 8 @ruby_current_ec)
  %6 = load ptr, ptr %5, align 8, !tbaa !33
  store ptr %6, ptr %3, align 8, !tbaa !33
  %7 = load ptr, ptr %3, align 8, !tbaa !33
  call void @llvm.lifetime.end.p0(i64 8, ptr %3) #27
  ret ptr %7
}

; Function Attrs: inlinehint nounwind sspstrong uwtable
define internal ptr @RTYPEDDATA_GET_DATA(i64 noundef %0) #1 {
  %2 = alloca i64, align 8
  %3 = alloca i64, align 8
  store i64 %0, ptr %2, align 8, !tbaa !35
  call void @llvm.lifetime.start.p0(i64 8, ptr %3) #27
  store i64 32, ptr %3, align 8, !tbaa !35
  %4 = load i64, ptr %2, align 8, !tbaa !35
  %5 = call zeroext i1 @RTYPEDDATA_EMBEDDED_P(i64 noundef %4)
  br i1 %5, label %6, label %10

6:                                                ; preds = %1
  %7 = load i64, ptr %2, align 8, !tbaa !35
  %8 = inttoptr i64 %7 to ptr
  %9 = getelementptr i8, ptr %8, i64 32
  br label %15

10:                                               ; preds = %1
  %11 = load i64, ptr %2, align 8, !tbaa !35
  %12 = inttoptr i64 %11 to ptr
  %13 = getelementptr inbounds nuw %struct.RTypedData, ptr %12, i32 0, i32 3
  %14 = load ptr, ptr %13, align 8, !tbaa !42
  br label %15

15:                                               ; preds = %10, %6
  %16 = phi ptr [ %9, %6 ], [ %14, %10 ]
  call void @llvm.lifetime.end.p0(i64 8, ptr %3) #27
  ret ptr %16
}

; Function Attrs: nounwind sspstrong uwtable
define internal i64 @rb_process_status_allocate(i64 noundef %0) #0 {
  %2 = alloca i64, align 8
  %3 = alloca ptr, align 8
  %4 = alloca i64, align 8
  %5 = alloca i64, align 8
  store i64 %0, ptr %2, align 8, !tbaa !35
  call void @llvm.lifetime.start.p0(i64 8, ptr %3) #27
  call void @llvm.lifetime.start.p0(i64 8, ptr %4) #27
  %6 = load i64, ptr %2, align 8, !tbaa !35
  %7 = call i64 @rb_data_typed_object_zalloc(i64 noundef %6, i64 noundef 12, ptr noundef @rb_process_status_type)
  store i64 %7, ptr %4, align 8, !tbaa !35
  %8 = load i64, ptr %4, align 8, !tbaa !35
  %9 = call ptr @RTYPEDDATA_GET_DATA(i64 noundef %8)
  store ptr %9, ptr %3, align 8, !tbaa !36
  %10 = load i64, ptr %4, align 8, !tbaa !35
  store i64 %10, ptr %5, align 8, !tbaa !35
  call void @llvm.lifetime.end.p0(i64 8, ptr %4) #27
  %11 = load i64, ptr %5, align 8, !tbaa !35
  call void @llvm.lifetime.end.p0(i64 8, ptr %3) #27
  ret i64 %11
}

; Function Attrs: inlinehint nounwind sspstrong uwtable
define internal ptr @rb_current_thread() #1 {
  %1 = alloca ptr, align 8
  call void @llvm.lifetime.start.p0(i64 8, ptr %1) #27
  %2 = call ptr @rb_current_execution_context(i1 noundef zeroext true)
  store ptr %2, ptr %1, align 8, !tbaa !33
  %3 = load ptr, ptr %1, align 8, !tbaa !33
  %4 = call ptr @rb_ec_thread_ptr(ptr noundef %3)
  call void @llvm.lifetime.end.p0(i64 8, ptr %1) #27
  ret ptr %4
}

; Function Attrs: nounwind sspstrong uwtable
define hidden i64 @rb_process_status_new(i32 noundef %0, i32 noundef %1, i32 noundef %2) #0 {
  %4 = alloca i32, align 4
  %5 = alloca i32, align 4
  %6 = alloca i32, align 4
  %7 = alloca i64, align 8
  %8 = alloca ptr, align 8
  store i32 %0, ptr %4, align 4, !tbaa !34
  store i32 %1, ptr %5, align 4, !tbaa !34
  store i32 %2, ptr %6, align 4, !tbaa !34
  call void @llvm.lifetime.start.p0(i64 8, ptr %7) #27
  %9 = load i64, ptr @rb_cProcessStatus, align 8, !tbaa !35
  %10 = call i64 @rb_process_status_allocate(i64 noundef %9)
  store i64 %10, ptr %7, align 8, !tbaa !35
  call void @llvm.lifetime.start.p0(i64 8, ptr %8) #27
  %11 = load i64, ptr %7, align 8, !tbaa !35
  %12 = call ptr @RTYPEDDATA_GET_DATA(i64 noundef %11)
  store ptr %12, ptr %8, align 8, !tbaa !36
  %13 = load i32, ptr %4, align 4, !tbaa !34
  %14 = load ptr, ptr %8, align 8, !tbaa !36
  %15 = getelementptr inbounds nuw %struct.rb_process_status, ptr %14, i32 0, i32 0
  store i32 %13, ptr %15, align 4, !tbaa !38
  %16 = load i32, ptr %5, align 4, !tbaa !34
  %17 = load ptr, ptr %8, align 8, !tbaa !36
  %18 = getelementptr inbounds nuw %struct.rb_process_status, ptr %17, i32 0, i32 1
  store i32 %16, ptr %18, align 4, !tbaa !40
  %19 = load i32, ptr %6, align 4, !tbaa !34
  %20 = load ptr, ptr %8, align 8, !tbaa !36
  %21 = getelementptr inbounds nuw %struct.rb_process_status, ptr %20, i32 0, i32 2
  store i32 %19, ptr %21, align 4, !tbaa !41
  %22 = load i64, ptr %7, align 8, !tbaa !35
  %23 = call i64 @rb_obj_freeze(i64 noundef %22)
  %24 = load i64, ptr %7, align 8, !tbaa !35
  call void @llvm.lifetime.end.p0(i64 8, ptr %8) #27
  call void @llvm.lifetime.end.p0(i64 8, ptr %7) #27
  ret i64 %24
}

; Function Attrs: nounwind sspstrong uwtable
define dso_local void @rb_last_status_set(i32 noundef %0, i32 noundef %1) #0 {
  %3 = alloca i32, align 4
  %4 = alloca i32, align 4
  store i32 %0, ptr %3, align 4, !tbaa !34
  store i32 %1, ptr %4, align 4, !tbaa !34
  %5 = load i32, ptr %4, align 4, !tbaa !34
  %6 = load i32, ptr %3, align 4, !tbaa !34
  %7 = call i64 @rb_process_status_new(i32 noundef %5, i32 noundef %6, i32 noundef 0)
  %8 = call ptr @rb_current_thread()
  %9 = getelementptr inbounds nuw %struct.rb_thread_struct, ptr %8, i32 0, i32 9
  store i64 %7, ptr %9, align 8, !tbaa !7
  ret void
}