; Function Attrs: nounwind sspstrong uwtable
define dso_local void @rb_last_status_set(i32 noundef %0, i32 noundef %1) local_unnamed_addr #1 {
  %3 = load i64, ptr @rb_cProcessStatus, align 8, !tbaa !43
  %4 = tail call i64 @rb_data_typed_object_zalloc(i64 noundef %3, i64 noundef 12, ptr noundef nonnull @rb_process_status_type) #27
  %5 = inttoptr i64 %4 to ptr
  %6 = getelementptr inbounds nuw i8, ptr %5, i64 24
  %7 = load i64, ptr %6, align 8, !tbaa !44
  %8 = and i64 %7, 2
  %.not.i.i = icmp eq i64 %8, 0
  %9 = getelementptr i8, ptr %5, i64 32
  br i1 %.not.i.i, label %10, label %rb_process_status_new.exit

10:                                               ; preds = %2
  %11 = load ptr, ptr %9, align 8, !tbaa !48
  br label %rb_process_status_new.exit

rb_process_status_new.exit:                       ; preds = %2, %10
  %12 = phi ptr [ %11, %10 ], [ %9, %2 ]
  store i32 %1, ptr %12, align 4, !tbaa !49
  %13 = getelementptr inbounds nuw i8, ptr %12, i64 4
  store i32 %0, ptr %13, align 4, !tbaa !51
  %14 = getelementptr inbounds nuw i8, ptr %12, i64 8
  store i32 0, ptr %14, align 4, !tbaa !52
  %15 = tail call i64 @rb_obj_freeze(i64 noundef %4) #27
  %16 = tail call align 8 ptr @llvm.threadlocal.address.p0(ptr align 8 @ruby_current_ec)
  %17 = load ptr, ptr %16, align 8, !tbaa !7
  %18 = getelementptr i8, ptr %17, i64 48
  %.val.i = load ptr, ptr %18, align 8, !tbaa !12
  %19 = getelementptr inbounds nuw i8, ptr %.val.i, i64 208
  store i64 %4, ptr %19, align 8, !tbaa !24
  ret void
}